; Listing generated by Microsoft (R) Optimizing Compiler Version 19.00.23506.0 

include listing.inc

INCLUDELIB MSVCRTD
INCLUDELIB OLDNAMES

PUBLIC	??0M68KSimulator@@QEAA@XZ			; M68KSimulator::M68KSimulator
PUBLIC	??1M68KSimulator@@QEAA@XZ			; M68KSimulator::~M68KSimulator
PUBLIC	?setByte@M68KSimulator@@QEAAXGE@Z		; M68KSimulator::setByte
PUBLIC	?setWord@M68KSimulator@@QEAAXGG@Z		; M68KSimulator::setWord
PUBLIC	?setLongWord@M68KSimulator@@QEAAXGI@Z		; M68KSimulator::setLongWord
PUBLIC	?addByte@M68KSimulator@@QEAAXGE@Z		; M68KSimulator::addByte
PUBLIC	?addWord@M68KSimulator@@QEAAXGG@Z		; M68KSimulator::addWord
PUBLIC	?addLongWord@M68KSimulator@@QEAAXGI@Z		; M68KSimulator::addLongWord
PUBLIC	__local_stdio_printf_options
PUBLIC	??$__vcrt_va_start_verify_argument_type@QEBD@@YAXXZ ; __vcrt_va_start_verify_argument_type<char const * __ptr64 const>
PUBLIC	printf
PUBLIC	?CallIntMethod@JNIEnv_@@QEAAJPEAV_jobject@@PEAU_jmethodID@@ZZ ; JNIEnv_::CallIntMethod
PUBLIC	??$__vcrt_va_start_verify_argument_type@PEAU_jmethodID@@@@YAXXZ ; __vcrt_va_start_verify_argument_type<_jmethodID * __ptr64>
PUBLIC	JNI_OnLoad
PUBLIC	JNI_OnUnload
PUBLIC	Java_com_LilG_Com_m68k_M68kSimImpl_adda
PUBLIC	Java_com_LilG_Com_m68k_M68kSimImpl_move
PUBLIC	Java_com_LilG_Com_m68k_M68kSimImpl_getByte
PUBLIC	Java_com_LilG_Com_m68k_M68kSimImpl_getWord
PUBLIC	Java_com_LilG_Com_m68k_M68kSimImpl_getLongWord
PUBLIC	Java_com_LilG_Com_m68k_M68kSimImpl_clearMem0
PUBLIC	Java_com_LilG_Com_m68k_M68kSimImpl_getRamStart
PUBLIC	Java_com_LilG_Com_m68k_M68kSimImpl_getRamSize
PUBLIC	DllMain
PUBLIC	?instance@@3PEAVM68KSimulator@@EA		; instance
PUBLIC	?_OptionsStorage@?1??__local_stdio_printf_options@@9@4_KA ; `__local_stdio_printf_options'::`2'::_OptionsStorage
PUBLIC	??_C@_0L@JCCNGKFG@DLL?5Loaded?$AA@		; `string'
PUBLIC	??_C@_0DD@HHCPJPAE@DEBUG?5?9?5M68KSimulator?5created?4?5S@ ; `string'
PUBLIC	??_C@_0L@IODJNECC@JNI?5Loaded?$AA@		; `string'
PUBLIC	??_C@_0N@FLNILKML@JNI?5Unloaded?$AA@		; `string'
PUBLIC	??_C@_03KNBKCOBB@?$CI?$CJI?$AA@			; `string'
PUBLIC	??_C@_07LEACAOHP@ordinal?$AA@			; `string'
PUBLIC	??_C@_0BH@LJJBNPH@com?1LilG?1Com?1m68k?1Size?$AA@ ; `string'
EXTRN	??2@YAPEAX_K@Z:PROC				; operator new
EXTRN	??3@YAXPEAX_K@Z:PROC				; operator delete
EXTRN	__imp_free:PROC
EXTRN	__imp_malloc:PROC
EXTRN	__imp___acrt_iob_func:PROC
EXTRN	__imp___stdio_common_vfprintf:PROC
EXTRN	_RTC_CheckStackVars:PROC
EXTRN	_RTC_InitBase:PROC
EXTRN	_RTC_Shutdown:PROC
EXTRN	__CxxFrameHandler3:PROC
EXTRN	__GSHandlerCheck:PROC
EXTRN	__security_check_cookie:PROC
EXTRN	__security_cookie:QWORD
_BSS	SEGMENT
?instance@@3PEAVM68KSimulator@@EA DQ 01H DUP (?)	; instance
_BSS	ENDS
;	COMDAT ?_OptionsStorage@?1??__local_stdio_printf_options@@9@4_KA
_BSS	SEGMENT
?_OptionsStorage@?1??__local_stdio_printf_options@@9@4_KA DQ 01H DUP (?) ; `__local_stdio_printf_options'::`2'::_OptionsStorage
_BSS	ENDS
;	COMDAT pdata
pdata	SEGMENT
$pdata$??0M68KSimulator@@QEAA@XZ DD imagerel $LN3
	DD	imagerel $LN3+119
	DD	imagerel $unwind$??0M68KSimulator@@QEAA@XZ
pdata	ENDS
;	COMDAT pdata
pdata	SEGMENT
$pdata$??1M68KSimulator@@QEAA@XZ DD imagerel $LN3
	DD	imagerel $LN3+68
	DD	imagerel $unwind$??1M68KSimulator@@QEAA@XZ
pdata	ENDS
;	COMDAT pdata
pdata	SEGMENT
$pdata$?setByte@M68KSimulator@@QEAAXGE@Z DD imagerel $LN3
	DD	imagerel $LN3+87
	DD	imagerel $unwind$?setByte@M68KSimulator@@QEAAXGE@Z
pdata	ENDS
;	COMDAT pdata
pdata	SEGMENT
$pdata$?setWord@M68KSimulator@@QEAAXGG@Z DD imagerel $LN3
	DD	imagerel $LN3+89
	DD	imagerel $unwind$?setWord@M68KSimulator@@QEAAXGG@Z
pdata	ENDS
;	COMDAT pdata
pdata	SEGMENT
$pdata$?setLongWord@M68KSimulator@@QEAAXGI@Z DD imagerel $LN3
	DD	imagerel $LN3+86
	DD	imagerel $unwind$?setLongWord@M68KSimulator@@QEAAXGI@Z
pdata	ENDS
;	COMDAT pdata
pdata	SEGMENT
$pdata$?addByte@M68KSimulator@@QEAAXGE@Z DD imagerel $LN3
	DD	imagerel $LN3+87
	DD	imagerel $unwind$?addByte@M68KSimulator@@QEAAXGE@Z
pdata	ENDS
;	COMDAT pdata
pdata	SEGMENT
$pdata$?addWord@M68KSimulator@@QEAAXGG@Z DD imagerel $LN3
	DD	imagerel $LN3+89
	DD	imagerel $unwind$?addWord@M68KSimulator@@QEAAXGG@Z
pdata	ENDS
;	COMDAT pdata
pdata	SEGMENT
$pdata$?addLongWord@M68KSimulator@@QEAAXGI@Z DD imagerel $LN3
	DD	imagerel $LN3+86
	DD	imagerel $unwind$?addLongWord@M68KSimulator@@QEAAXGI@Z
pdata	ENDS
;	COMDAT pdata
pdata	SEGMENT
$pdata$??__Einstance@@YAXXZ DD imagerel ??__Einstance@@YAXXZ
	DD	imagerel ??__Einstance@@YAXXZ+154
	DD	imagerel $unwind$??__Einstance@@YAXXZ
pdata	ENDS
;	COMDAT pdata
pdata	SEGMENT
$pdata$?dtor$0@?0???__Einstance@@YAXXZ@4HA DD imagerel ?dtor$0@?0???__Einstance@@YAXXZ@4HA
	DD	imagerel ?dtor$0@?0???__Einstance@@YAXXZ@4HA+44
	DD	imagerel $unwind$?dtor$0@?0???__Einstance@@YAXXZ@4HA
pdata	ENDS
;	COMDAT pdata
pdata	SEGMENT
$pdata$__local_stdio_printf_options DD imagerel $LN3
	DD	imagerel $LN3+45
	DD	imagerel $unwind$__local_stdio_printf_options
pdata	ENDS
;	COMDAT pdata
pdata	SEGMENT
$pdata$??$__vcrt_va_start_verify_argument_type@QEBD@@YAXXZ DD imagerel $LN3
	DD	imagerel $LN3+38
	DD	imagerel $unwind$??$__vcrt_va_start_verify_argument_type@QEBD@@YAXXZ
pdata	ENDS
;	COMDAT pdata
pdata	SEGMENT
$pdata$printf DD imagerel $LN5
	DD	imagerel $LN5+223
	DD	imagerel $unwind$printf
pdata	ENDS
;	COMDAT pdata
pdata	SEGMENT
$pdata$?CallIntMethod@JNIEnv_@@QEAAJPEAV_jobject@@PEAU_jmethodID@@ZZ DD imagerel $LN3
	DD	imagerel $LN3+190
	DD	imagerel $unwind$?CallIntMethod@JNIEnv_@@QEAAJPEAV_jobject@@PEAU_jmethodID@@ZZ
pdata	ENDS
;	COMDAT pdata
pdata	SEGMENT
$pdata$??$__vcrt_va_start_verify_argument_type@PEAU_jmethodID@@@@YAXXZ DD imagerel $LN3
	DD	imagerel $LN3+38
	DD	imagerel $unwind$??$__vcrt_va_start_verify_argument_type@PEAU_jmethodID@@@@YAXXZ
pdata	ENDS
;	COMDAT pdata
pdata	SEGMENT
$pdata$JNI_OnLoad DD imagerel $LN3
	DD	imagerel $LN3+74
	DD	imagerel $unwind$JNI_OnLoad
pdata	ENDS
;	COMDAT pdata
pdata	SEGMENT
$pdata$JNI_OnUnload DD imagerel $LN9
	DD	imagerel $LN9+189
	DD	imagerel $unwind$JNI_OnUnload
pdata	ENDS
;	COMDAT pdata
pdata	SEGMENT
$pdata$Java_com_LilG_Com_m68k_M68kSimImpl_adda DD imagerel $LN12
	DD	imagerel $LN12+298
	DD	imagerel $unwind$Java_com_LilG_Com_m68k_M68kSimImpl_adda
pdata	ENDS
;	COMDAT pdata
pdata	SEGMENT
$pdata$Java_com_LilG_Com_m68k_M68kSimImpl_move DD imagerel $LN12
	DD	imagerel $LN12+297
	DD	imagerel $unwind$Java_com_LilG_Com_m68k_M68kSimImpl_move
pdata	ENDS
;	COMDAT pdata
pdata	SEGMENT
$pdata$Java_com_LilG_Com_m68k_M68kSimImpl_getByte DD imagerel $LN3
	DD	imagerel $LN3+81
	DD	imagerel $unwind$Java_com_LilG_Com_m68k_M68kSimImpl_getByte
pdata	ENDS
;	COMDAT pdata
pdata	SEGMENT
$pdata$Java_com_LilG_Com_m68k_M68kSimImpl_getWord DD imagerel $LN3
	DD	imagerel $LN3+81
	DD	imagerel $unwind$Java_com_LilG_Com_m68k_M68kSimImpl_getWord
pdata	ENDS
;	COMDAT pdata
pdata	SEGMENT
$pdata$Java_com_LilG_Com_m68k_M68kSimImpl_getLongWord DD imagerel $LN3
	DD	imagerel $LN3+80
	DD	imagerel $unwind$Java_com_LilG_Com_m68k_M68kSimImpl_getLongWord
pdata	ENDS
;	COMDAT pdata
pdata	SEGMENT
$pdata$Java_com_LilG_Com_m68k_M68kSimImpl_clearMem0 DD imagerel $LN3
	DD	imagerel $LN3+74
	DD	imagerel $unwind$Java_com_LilG_Com_m68k_M68kSimImpl_clearMem0
pdata	ENDS
;	COMDAT pdata
pdata	SEGMENT
$pdata$Java_com_LilG_Com_m68k_M68kSimImpl_getRamStart DD imagerel $LN3
	DD	imagerel $LN3+62
	DD	imagerel $unwind$Java_com_LilG_Com_m68k_M68kSimImpl_getRamStart
pdata	ENDS
;	COMDAT pdata
pdata	SEGMENT
$pdata$Java_com_LilG_Com_m68k_M68kSimImpl_getRamSize DD imagerel $LN3
	DD	imagerel $LN3+60
	DD	imagerel $unwind$Java_com_LilG_Com_m68k_M68kSimImpl_getRamSize
pdata	ENDS
;	COMDAT pdata
pdata	SEGMENT
$pdata$DllMain DD imagerel $LN3
	DD	imagerel $LN3+78
	DD	imagerel $unwind$DllMain
pdata	ENDS
CRT$XCU	SEGMENT
?instance$initializer$@@3P6AXXZEA DQ FLAT:??__Einstance@@YAXXZ ; instance$initializer$
CRT$XCU	ENDS
;	COMDAT rtc$TMZ
rtc$TMZ	SEGMENT
_RTC_Shutdown.rtc$TMZ DQ FLAT:_RTC_Shutdown
rtc$TMZ	ENDS
;	COMDAT rtc$IMZ
rtc$IMZ	SEGMENT
_RTC_InitBase.rtc$IMZ DQ FLAT:_RTC_InitBase
rtc$IMZ	ENDS
;	COMDAT ??_C@_0BH@LJJBNPH@com?1LilG?1Com?1m68k?1Size?$AA@
CONST	SEGMENT
??_C@_0BH@LJJBNPH@com?1LilG?1Com?1m68k?1Size?$AA@ DB 'com/LilG/Com/m68k/S'
	DB	'ize', 00H					; `string'
CONST	ENDS
;	COMDAT ??_C@_07LEACAOHP@ordinal?$AA@
CONST	SEGMENT
??_C@_07LEACAOHP@ordinal?$AA@ DB 'ordinal', 00H		; `string'
CONST	ENDS
;	COMDAT ??_C@_03KNBKCOBB@?$CI?$CJI?$AA@
CONST	SEGMENT
??_C@_03KNBKCOBB@?$CI?$CJI?$AA@ DB '()I', 00H		; `string'
CONST	ENDS
;	COMDAT ??_C@_0N@FLNILKML@JNI?5Unloaded?$AA@
CONST	SEGMENT
??_C@_0N@FLNILKML@JNI?5Unloaded?$AA@ DB 'JNI Unloaded', 00H ; `string'
CONST	ENDS
;	COMDAT ??_C@_0L@IODJNECC@JNI?5Loaded?$AA@
CONST	SEGMENT
??_C@_0L@IODJNECC@JNI?5Loaded?$AA@ DB 'JNI Loaded', 00H	; `string'
CONST	ENDS
;	COMDAT ??_C@_0DD@HHCPJPAE@DEBUG?5?9?5M68KSimulator?5created?4?5S@
CONST	SEGMENT
??_C@_0DD@HHCPJPAE@DEBUG?5?9?5M68KSimulator?5created?4?5S@ DB 'DEBUG - M6'
	DB	'8KSimulator created. Starting offset: %p', 00H ; `string'
CONST	ENDS
;	COMDAT ??_C@_0L@JCCNGKFG@DLL?5Loaded?$AA@
CONST	SEGMENT
??_C@_0L@JCCNGKFG@DLL?5Loaded?$AA@ DB 'DLL Loaded', 00H	; `string'
CONST	ENDS
;	COMDAT xdata
xdata	SEGMENT
$unwind$DllMain DD 025053301H
	DD	0117231cH
	DD	07010001dH
	DD	0500fH
xdata	ENDS
;	COMDAT xdata
xdata	SEGMENT
$unwind$Java_com_LilG_Com_m68k_M68kSimImpl_getRamSize DD 05052d01H
	DD	01130316H
	DD	0700c0019H
	DD	0500bH
xdata	ENDS
;	COMDAT xdata
xdata	SEGMENT
$unwind$Java_com_LilG_Com_m68k_M68kSimImpl_getRamStart DD 05052d01H
	DD	01130316H
	DD	0700c0019H
	DD	0500bH
xdata	ENDS
;	COMDAT xdata
xdata	SEGMENT
$unwind$Java_com_LilG_Com_m68k_M68kSimImpl_clearMem0 DD 05052d01H
	DD	01130316H
	DD	0700c0019H
	DD	0500bH
xdata	ENDS
;	COMDAT xdata
xdata	SEGMENT
$unwind$Java_com_LilG_Com_m68k_M68kSimImpl_getLongWord DD 05053201H
	DD	0118031bH
	DD	070110019H
	DD	05010H
xdata	ENDS
;	COMDAT xdata
xdata	SEGMENT
$unwind$Java_com_LilG_Com_m68k_M68kSimImpl_getWord DD 05053201H
	DD	0118031bH
	DD	070110019H
	DD	05010H
xdata	ENDS
;	COMDAT xdata
xdata	SEGMENT
$unwind$Java_com_LilG_Com_m68k_M68kSimImpl_getByte DD 05053201H
	DD	0118031bH
	DD	070110019H
	DD	05010H
xdata	ENDS
;	COMDAT xdata
xdata	SEGMENT
$unwind$Java_com_LilG_Com_m68k_M68kSimImpl_move DD 025053901H
	DD	011d2322H
	DD	070160029H
	DD	05015H
xdata	ENDS
;	COMDAT xdata
xdata	SEGMENT
$unwind$Java_com_LilG_Com_m68k_M68kSimImpl_adda DD 025053901H
	DD	011d2322H
	DD	070160029H
	DD	05015H
xdata	ENDS
;	COMDAT xdata
xdata	SEGMENT
$unwind$JNI_OnUnload DD 025052f01H
	DD	01132318H
	DD	0700c0029H
	DD	0500bH
xdata	ENDS
;	COMDAT xdata
xdata	SEGMENT
$unwind$JNI_OnLoad DD 025052f01H
	DD	01132318H
	DD	0700c001dH
	DD	0500bH
xdata	ENDS
;	COMDAT xdata
xdata	SEGMENT
$unwind$??$__vcrt_va_start_verify_argument_type@PEAU_jmethodID@@@@YAXXZ DD 05051c01H
	DD	010a030dH
	DD	070030019H
	DD	05002H
xdata	ENDS
;	COMDAT xdata
xdata	SEGMENT
$unwind$?CallIntMethod@JNIEnv_@@QEAAJPEAV_jobject@@PEAU_jmethodID@@ZZ DD 025054a19H
	DD	011d2322H
	DD	070160025H
	DD	05015H
	DD	imagerel __GSHandlerCheck
	DD	0118H
xdata	ENDS
;	COMDAT CONST
CONST	SEGMENT
?CallIntMethod@JNIEnv_@@QEAAJPEAV_jobject@@PEAU_jmethodID@@ZZ$rtcName$0 DB 061H ; JNIEnv_::CallIntMethod
	DB	072H
	DB	067H
	DB	073H
	DB	00H
	ORG $+11
?CallIntMethod@JNIEnv_@@QEAAJPEAV_jobject@@PEAU_jmethodID@@ZZ$rtcVarDesc DD 028H ; JNIEnv_::CallIntMethod
	DD	08H
	DQ	FLAT:?CallIntMethod@JNIEnv_@@QEAAJPEAV_jobject@@PEAU_jmethodID@@ZZ$rtcName$0
	ORG $+48
?CallIntMethod@JNIEnv_@@QEAAJPEAV_jobject@@PEAU_jmethodID@@ZZ$rtcFrameData DD 01H ; JNIEnv_::CallIntMethod
	DD	00H
	DQ	FLAT:?CallIntMethod@JNIEnv_@@QEAAJPEAV_jobject@@PEAU_jmethodID@@ZZ$rtcVarDesc
CONST	ENDS
;	COMDAT xdata
xdata	SEGMENT
$unwind$printf DD 035054a19H
	DD	011d3322H
	DD	070160033H
	DD	05015H
	DD	imagerel __GSHandlerCheck
	DD	0188H
xdata	ENDS
;	COMDAT CONST
CONST	SEGMENT
printf$rtcName$0 DB 05fH
	DB	041H
	DB	072H
	DB	067H
	DB	04cH
	DB	069H
	DB	073H
	DB	074H
	DB	00H
	ORG $+7
printf$rtcVarDesc DD 058H
	DD	08H
	DQ	FLAT:printf$rtcName$0
	ORG $+48
printf$rtcFrameData DD 01H
	DD	00H
	DQ	FLAT:printf$rtcVarDesc
CONST	ENDS
;	COMDAT xdata
xdata	SEGMENT
$unwind$??$__vcrt_va_start_verify_argument_type@QEBD@@YAXXZ DD 05051c01H
	DD	010a030dH
	DD	070030019H
	DD	05002H
xdata	ENDS
;	COMDAT xdata
xdata	SEGMENT
$unwind$__local_stdio_printf_options DD 05051c01H
	DD	010a030dH
	DD	070030019H
	DD	05002H
xdata	ENDS
;	COMDAT xdata
xdata	SEGMENT
$unwind$?dtor$0@?0???__Einstance@@YAXXZ@4HA DD 031001H
	DD	0700c4210H
	DD	0500bH
xdata	ENDS
;	COMDAT xdata
xdata	SEGMENT
$ip2state$??__Einstance@@YAXXZ DD imagerel ??__Einstance@@YAXXZ
	DD	0ffffffffH
	DD	imagerel ??__Einstance@@YAXXZ+58
	DD	00H
	DD	imagerel ??__Einstance@@YAXXZ+130
	DD	0ffffffffH
xdata	ENDS
;	COMDAT xdata
xdata	SEGMENT
$stateUnwindMap$??__Einstance@@YAXXZ DD 0ffffffffH
	DD	imagerel ?dtor$0@?0???__Einstance@@YAXXZ@4HA
xdata	ENDS
;	COMDAT CONST
CONST	SEGMENT
$cppxdata$??__Einstance@@YAXXZ DD 019930522H
	DD	01H
	DD	imagerel $stateUnwindMap$??__Einstance@@YAXXZ
	DD	00H
	DD	00H
	DD	03H
	DD	imagerel $ip2state$??__Einstance@@YAXXZ
	DD	0128H
	DD	00H
	DD	01H
CONST	ENDS
;	COMDAT xdata
xdata	SEGMENT
$unwind$??__Einstance@@YAXXZ DD 025052911H
	DD	010a230fH
	DD	070030029H
	DD	05002H
	DD	imagerel __CxxFrameHandler3
	DD	imagerel $cppxdata$??__Einstance@@YAXXZ
xdata	ENDS
;	COMDAT xdata
xdata	SEGMENT
$unwind$?addLongWord@M68KSimulator@@QEAAXGI@Z DD 05053201H
	DD	0118031bH
	DD	070110019H
	DD	05010H
xdata	ENDS
;	COMDAT xdata
xdata	SEGMENT
$unwind$?addWord@M68KSimulator@@QEAAXGG@Z DD 05053301H
	DD	0119031cH
	DD	070120019H
	DD	05011H
xdata	ENDS
;	COMDAT xdata
xdata	SEGMENT
$unwind$?addByte@M68KSimulator@@QEAAXGE@Z DD 05053201H
	DD	0118031bH
	DD	070110019H
	DD	05010H
xdata	ENDS
;	COMDAT xdata
xdata	SEGMENT
$unwind$?setLongWord@M68KSimulator@@QEAAXGI@Z DD 05053201H
	DD	0118031bH
	DD	070110019H
	DD	05010H
xdata	ENDS
;	COMDAT xdata
xdata	SEGMENT
$unwind$?setWord@M68KSimulator@@QEAAXGG@Z DD 05053301H
	DD	0119031cH
	DD	070120019H
	DD	05011H
xdata	ENDS
;	COMDAT xdata
xdata	SEGMENT
$unwind$?setByte@M68KSimulator@@QEAAXGE@Z DD 05053201H
	DD	0118031bH
	DD	070110019H
	DD	05010H
xdata	ENDS
;	COMDAT xdata
xdata	SEGMENT
$unwind$??1M68KSimulator@@QEAA@XZ DD 025052a01H
	DD	010e2313H
	DD	07007001dH
	DD	05006H
xdata	ENDS
;	COMDAT xdata
xdata	SEGMENT
$unwind$??0M68KSimulator@@QEAA@XZ DD 025052a01H
	DD	010e2313H
	DD	07007001dH
	DD	05006H
xdata	ENDS
; Function compile flags: /Odtp /RTCsu /ZI
;	COMDAT DllMain
_TEXT	SEGMENT
hinstDLL$ = 224
fdwReason$ = 232
lpvReserved$ = 240
DllMain	PROC						; COMDAT
; File c:\users\fozrucix\workspace\fozrucix\jni\jnithing\jnithing\m68ksimulator.cpp
; Line 8
$LN3:
	mov	QWORD PTR [rsp+24], r8
	mov	DWORD PTR [rsp+16], edx
	mov	QWORD PTR [rsp+8], rcx
	push	rbp
	push	rdi
	sub	rsp, 232				; 000000e8H
	lea	rbp, QWORD PTR [rsp+32]
	mov	rdi, rsp
	mov	ecx, 58					; 0000003aH
	mov	eax, -858993460				; ccccccccH
	rep stosd
	mov	rcx, QWORD PTR [rsp+264]
; Line 9
	lea	rcx, OFFSET FLAT:??_C@_0L@JCCNGKFG@DLL?5Loaded?$AA@
	call	printf
; Line 10
	mov	eax, 1
; Line 11
	lea	rsp, QWORD PTR [rbp+200]
	pop	rdi
	pop	rbp
	ret	0
DllMain	ENDP
_TEXT	ENDS
; Function compile flags: /Odtp /RTCsu /ZI
;	COMDAT Java_com_LilG_Com_m68k_M68kSimImpl_getRamSize
_TEXT	SEGMENT
env$ = 224
__formal$ = 232
Java_com_LilG_Com_m68k_M68kSimImpl_getRamSize PROC	; COMDAT
; File c:\users\fozrucix\workspace\fozrucix\jni\jnithing\jnithing\m68ksimulator.cpp
; Line 157
$LN3:
	mov	QWORD PTR [rsp+16], rdx
	mov	QWORD PTR [rsp+8], rcx
	push	rbp
	push	rdi
	sub	rsp, 200				; 000000c8H
	mov	rbp, rsp
	mov	rdi, rsp
	mov	ecx, 50					; 00000032H
	mov	eax, -858993460				; ccccccccH
	rep stosd
	mov	rcx, QWORD PTR [rsp+232]
; Line 158
	mov	eax, 65536				; 00010000H
; Line 159
	lea	rsp, QWORD PTR [rbp+200]
	pop	rdi
	pop	rbp
	ret	0
Java_com_LilG_Com_m68k_M68kSimImpl_getRamSize ENDP
_TEXT	ENDS
; Function compile flags: /Odtp /RTCsu /ZI
;	COMDAT Java_com_LilG_Com_m68k_M68kSimImpl_getRamStart
_TEXT	SEGMENT
env$ = 224
__formal$ = 232
Java_com_LilG_Com_m68k_M68kSimImpl_getRamStart PROC	; COMDAT
; File c:\users\fozrucix\workspace\fozrucix\jni\jnithing\jnithing\m68ksimulator.cpp
; Line 147
$LN3:
	mov	QWORD PTR [rsp+16], rdx
	mov	QWORD PTR [rsp+8], rcx
	push	rbp
	push	rdi
	sub	rsp, 200				; 000000c8H
	mov	rbp, rsp
	mov	rdi, rsp
	mov	ecx, 50					; 00000032H
	mov	eax, -858993460				; ccccccccH
	rep stosd
	mov	rcx, QWORD PTR [rsp+232]
; Line 148
	mov	rax, QWORD PTR ?instance@@3PEAVM68KSimulator@@EA ; instance
; Line 149
	lea	rsp, QWORD PTR [rbp+200]
	pop	rdi
	pop	rbp
	ret	0
Java_com_LilG_Com_m68k_M68kSimImpl_getRamStart ENDP
_TEXT	ENDS
; Function compile flags: /Odtp /RTCsu /ZI
;	COMDAT Java_com_LilG_Com_m68k_M68kSimImpl_clearMem0
_TEXT	SEGMENT
env$ = 224
__formal$ = 232
Java_com_LilG_Com_m68k_M68kSimImpl_clearMem0 PROC	; COMDAT
; File c:\users\fozrucix\workspace\fozrucix\jni\jnithing\jnithing\m68ksimulator.cpp
; Line 137
$LN3:
	mov	QWORD PTR [rsp+16], rdx
	mov	QWORD PTR [rsp+8], rcx
	push	rbp
	push	rdi
	sub	rsp, 200				; 000000c8H
	mov	rbp, rsp
	mov	rdi, rsp
	mov	ecx, 50					; 00000032H
	mov	eax, -858993460				; ccccccccH
	rep stosd
	mov	rcx, QWORD PTR [rsp+232]
; Line 138
	mov	rax, QWORD PTR ?instance@@3PEAVM68KSimulator@@EA ; instance
	mov	rdi, QWORD PTR [rax]
	xor	eax, eax
	mov	ecx, 65536				; 00010000H
	rep stosb
; Line 139
	lea	rsp, QWORD PTR [rbp+200]
	pop	rdi
	pop	rbp
	ret	0
Java_com_LilG_Com_m68k_M68kSimImpl_clearMem0 ENDP
_TEXT	ENDS
; Function compile flags: /Odtp /RTCsu /ZI
;	COMDAT Java_com_LilG_Com_m68k_M68kSimImpl_getLongWord
_TEXT	SEGMENT
env$ = 224
__formal$ = 232
address$ = 240
Java_com_LilG_Com_m68k_M68kSimImpl_getLongWord PROC	; COMDAT
; File c:\users\fozrucix\workspace\fozrucix\jni\jnithing\jnithing\m68ksimulator.cpp
; Line 103
$LN3:
	mov	DWORD PTR [rsp+24], r8d
	mov	QWORD PTR [rsp+16], rdx
	mov	QWORD PTR [rsp+8], rcx
	push	rbp
	push	rdi
	sub	rsp, 200				; 000000c8H
	mov	rbp, rsp
	mov	rdi, rsp
	mov	ecx, 50					; 00000032H
	mov	eax, -858993460				; ccccccccH
	rep stosd
	mov	rcx, QWORD PTR [rsp+232]
; Line 104
	mov	rax, QWORD PTR ?instance@@3PEAVM68KSimulator@@EA ; instance
	mov	rax, QWORD PTR [rax]
	movsxd	rcx, DWORD PTR address$[rbp]
	mov	eax, DWORD PTR [rax+rcx*4]
; Line 105
	lea	rsp, QWORD PTR [rbp+200]
	pop	rdi
	pop	rbp
	ret	0
Java_com_LilG_Com_m68k_M68kSimImpl_getLongWord ENDP
_TEXT	ENDS
; Function compile flags: /Odtp /RTCsu /ZI
;	COMDAT Java_com_LilG_Com_m68k_M68kSimImpl_getWord
_TEXT	SEGMENT
__formal$ = 224
__formal$ = 232
address$ = 240
Java_com_LilG_Com_m68k_M68kSimImpl_getWord PROC		; COMDAT
; File c:\users\fozrucix\workspace\fozrucix\jni\jnithing\jnithing\m68ksimulator.cpp
; Line 93
$LN3:
	mov	DWORD PTR [rsp+24], r8d
	mov	QWORD PTR [rsp+16], rdx
	mov	QWORD PTR [rsp+8], rcx
	push	rbp
	push	rdi
	sub	rsp, 200				; 000000c8H
	mov	rbp, rsp
	mov	rdi, rsp
	mov	ecx, 50					; 00000032H
	mov	eax, -858993460				; ccccccccH
	rep stosd
	mov	rcx, QWORD PTR [rsp+232]
; Line 94
	mov	rax, QWORD PTR ?instance@@3PEAVM68KSimulator@@EA ; instance
	mov	rax, QWORD PTR [rax]
	movsxd	rcx, DWORD PTR address$[rbp]
	movzx	eax, WORD PTR [rax+rcx*2]
; Line 95
	lea	rsp, QWORD PTR [rbp+200]
	pop	rdi
	pop	rbp
	ret	0
Java_com_LilG_Com_m68k_M68kSimImpl_getWord ENDP
_TEXT	ENDS
; Function compile flags: /Odtp /RTCsu /ZI
;	COMDAT Java_com_LilG_Com_m68k_M68kSimImpl_getByte
_TEXT	SEGMENT
__formal$ = 224
__formal$ = 232
address$ = 240
Java_com_LilG_Com_m68k_M68kSimImpl_getByte PROC		; COMDAT
; File c:\users\fozrucix\workspace\fozrucix\jni\jnithing\jnithing\m68ksimulator.cpp
; Line 83
$LN3:
	mov	DWORD PTR [rsp+24], r8d
	mov	QWORD PTR [rsp+16], rdx
	mov	QWORD PTR [rsp+8], rcx
	push	rbp
	push	rdi
	sub	rsp, 200				; 000000c8H
	mov	rbp, rsp
	mov	rdi, rsp
	mov	ecx, 50					; 00000032H
	mov	eax, -858993460				; ccccccccH
	rep stosd
	mov	rcx, QWORD PTR [rsp+232]
; Line 84
	mov	rax, QWORD PTR ?instance@@3PEAVM68KSimulator@@EA ; instance
	mov	rax, QWORD PTR [rax]
	movsxd	rcx, DWORD PTR address$[rbp]
	movzx	eax, BYTE PTR [rax+rcx]
; Line 85
	lea	rsp, QWORD PTR [rbp+200]
	pop	rdi
	pop	rbp
	ret	0
Java_com_LilG_Com_m68k_M68kSimImpl_getByte ENDP
_TEXT	ENDS
; Function compile flags: /Odtp /RTCsu /ZI
;	COMDAT Java_com_LilG_Com_m68k_M68kSimImpl_move
_TEXT	SEGMENT
envelopeGetValueMethod$ = 8
value$ = 36
$T1 = 264
tv76 = 276
env$ = 320
__formal$ = 328
size$ = 336
data$ = 344
ea$ = 352
Java_com_LilG_Com_m68k_M68kSimImpl_move PROC		; COMDAT
; File c:\users\fozrucix\workspace\fozrucix\jni\jnithing\jnithing\m68ksimulator.cpp
; Line 62
$LN12:
	mov	QWORD PTR [rsp+32], r9
	mov	QWORD PTR [rsp+24], r8
	mov	QWORD PTR [rsp+16], rdx
	mov	QWORD PTR [rsp+8], rcx
	push	rbp
	push	rdi
	sub	rsp, 328				; 00000148H
	lea	rbp, QWORD PTR [rsp+32]
	mov	rdi, rsp
	mov	ecx, 82					; 00000052H
	mov	eax, -858993460				; ccccccccH
	rep stosd
	mov	rcx, QWORD PTR [rsp+360]
; File c:\program files\java\jdk1.8.0_51\include\jni.h
; Line 794
	mov	rax, QWORD PTR env$[rbp]
	mov	rax, QWORD PTR [rax]
	lea	rdx, OFFSET FLAT:??_C@_0BH@LJJBNPH@com?1LilG?1Com?1m68k?1Size?$AA@
	mov	rcx, QWORD PTR env$[rbp]
	call	QWORD PTR [rax+48]
	mov	QWORD PTR $T1[rbp], rax
; Line 894
	mov	rax, QWORD PTR env$[rbp]
	mov	rax, QWORD PTR [rax]
	lea	r9, OFFSET FLAT:??_C@_03KNBKCOBB@?$CI?$CJI?$AA@
	lea	r8, OFFSET FLAT:??_C@_07LEACAOHP@ordinal?$AA@
	mov	rdx, QWORD PTR $T1[rbp]
	mov	rcx, QWORD PTR env$[rbp]
	call	QWORD PTR [rax+264]
; File c:\users\fozrucix\workspace\fozrucix\jni\jnithing\jnithing\m68ksimulator.cpp
; Line 63
	mov	QWORD PTR envelopeGetValueMethod$[rbp], rax
; Line 64
	mov	r8, QWORD PTR envelopeGetValueMethod$[rbp]
	mov	rdx, QWORD PTR size$[rbp]
	mov	rcx, QWORD PTR env$[rbp]
	call	?CallIntMethod@JNIEnv_@@QEAAJPEAV_jobject@@PEAU_jmethodID@@ZZ ; JNIEnv_::CallIntMethod
	mov	DWORD PTR value$[rbp], eax
; Line 65
	mov	eax, DWORD PTR value$[rbp]
	mov	DWORD PTR tv76[rbp], eax
	cmp	DWORD PTR tv76[rbp], 0
	je	SHORT $LN4@Java_com_L
	cmp	DWORD PTR tv76[rbp], 1
	je	SHORT $LN5@Java_com_L
	cmp	DWORD PTR tv76[rbp], 2
	je	SHORT $LN6@Java_com_L
	jmp	SHORT $LN2@Java_com_L
$LN4@Java_com_L:
; Line 67
	movzx	r8d, BYTE PTR data$[rbp]
	movzx	edx, WORD PTR ea$[rbp]
	mov	rcx, QWORD PTR ?instance@@3PEAVM68KSimulator@@EA ; instance
	call	?setByte@M68KSimulator@@QEAAXGE@Z	; M68KSimulator::setByte
; Line 68
	jmp	SHORT $LN2@Java_com_L
$LN5@Java_com_L:
; Line 70
	movzx	r8d, WORD PTR data$[rbp]
	movzx	edx, WORD PTR ea$[rbp]
	mov	rcx, QWORD PTR ?instance@@3PEAVM68KSimulator@@EA ; instance
	call	?setWord@M68KSimulator@@QEAAXGG@Z	; M68KSimulator::setWord
; Line 71
	jmp	SHORT $LN2@Java_com_L
$LN6@Java_com_L:
; Line 73
	mov	r8d, DWORD PTR data$[rbp]
	movzx	edx, WORD PTR ea$[rbp]
	mov	rcx, QWORD PTR ?instance@@3PEAVM68KSimulator@@EA ; instance
	call	?setLongWord@M68KSimulator@@QEAAXGI@Z	; M68KSimulator::setLongWord
$LN2@Java_com_L:
; Line 75
	lea	rsp, QWORD PTR [rbp+296]
	pop	rdi
	pop	rbp
	ret	0
Java_com_LilG_Com_m68k_M68kSimImpl_move ENDP
_TEXT	ENDS
; Function compile flags: /Odtp /RTCsu /ZI
;	COMDAT Java_com_LilG_Com_m68k_M68kSimImpl_adda
_TEXT	SEGMENT
envelopeGetValueMethod$ = 8
value$ = 36
$T1 = 264
tv78 = 276
env$ = 320
__formal$ = 328
size$ = 336
data$ = 344
ea$ = 352
Java_com_LilG_Com_m68k_M68kSimImpl_adda PROC		; COMDAT
; File c:\users\fozrucix\workspace\fozrucix\jni\jnithing\jnithing\m68ksimulator.cpp
; Line 41
$LN12:
	mov	QWORD PTR [rsp+32], r9
	mov	QWORD PTR [rsp+24], r8
	mov	QWORD PTR [rsp+16], rdx
	mov	QWORD PTR [rsp+8], rcx
	push	rbp
	push	rdi
	sub	rsp, 328				; 00000148H
	lea	rbp, QWORD PTR [rsp+32]
	mov	rdi, rsp
	mov	ecx, 82					; 00000052H
	mov	eax, -858993460				; ccccccccH
	rep stosd
	mov	rcx, QWORD PTR [rsp+360]
; File c:\program files\java\jdk1.8.0_51\include\jni.h
; Line 794
	mov	rax, QWORD PTR env$[rbp]
	mov	rax, QWORD PTR [rax]
	lea	rdx, OFFSET FLAT:??_C@_0BH@LJJBNPH@com?1LilG?1Com?1m68k?1Size?$AA@
	mov	rcx, QWORD PTR env$[rbp]
	call	QWORD PTR [rax+48]
	mov	QWORD PTR $T1[rbp], rax
; Line 894
	mov	rax, QWORD PTR env$[rbp]
	mov	rax, QWORD PTR [rax]
	lea	r9, OFFSET FLAT:??_C@_03KNBKCOBB@?$CI?$CJI?$AA@
	lea	r8, OFFSET FLAT:??_C@_07LEACAOHP@ordinal?$AA@
	mov	rdx, QWORD PTR $T1[rbp]
	mov	rcx, QWORD PTR env$[rbp]
	call	QWORD PTR [rax+264]
; File c:\users\fozrucix\workspace\fozrucix\jni\jnithing\jnithing\m68ksimulator.cpp
; Line 42
	mov	QWORD PTR envelopeGetValueMethod$[rbp], rax
; Line 43
	mov	r8, QWORD PTR envelopeGetValueMethod$[rbp]
	mov	rdx, QWORD PTR size$[rbp]
	mov	rcx, QWORD PTR env$[rbp]
	call	?CallIntMethod@JNIEnv_@@QEAAJPEAV_jobject@@PEAU_jmethodID@@ZZ ; JNIEnv_::CallIntMethod
	mov	BYTE PTR value$[rbp], al
; Line 44
	movzx	eax, BYTE PTR value$[rbp]
	mov	BYTE PTR tv78[rbp], al
	cmp	BYTE PTR tv78[rbp], 0
	je	SHORT $LN4@Java_com_L
	cmp	BYTE PTR tv78[rbp], 1
	je	SHORT $LN5@Java_com_L
	cmp	BYTE PTR tv78[rbp], 2
	je	SHORT $LN6@Java_com_L
	jmp	SHORT $LN2@Java_com_L
$LN4@Java_com_L:
; Line 46
	movzx	r8d, BYTE PTR data$[rbp]
	movzx	edx, WORD PTR ea$[rbp]
	mov	rcx, QWORD PTR ?instance@@3PEAVM68KSimulator@@EA ; instance
	call	?addByte@M68KSimulator@@QEAAXGE@Z	; M68KSimulator::addByte
; Line 47
	jmp	SHORT $LN2@Java_com_L
$LN5@Java_com_L:
; Line 49
	movzx	r8d, WORD PTR data$[rbp]
	movzx	edx, WORD PTR ea$[rbp]
	mov	rcx, QWORD PTR ?instance@@3PEAVM68KSimulator@@EA ; instance
	call	?addWord@M68KSimulator@@QEAAXGG@Z	; M68KSimulator::addWord
; Line 50
	jmp	SHORT $LN2@Java_com_L
$LN6@Java_com_L:
; Line 52
	mov	r8d, DWORD PTR data$[rbp]
	movzx	edx, WORD PTR ea$[rbp]
	mov	rcx, QWORD PTR ?instance@@3PEAVM68KSimulator@@EA ; instance
	call	?addLongWord@M68KSimulator@@QEAAXGI@Z	; M68KSimulator::addLongWord
$LN2@Java_com_L:
; Line 54
	lea	rsp, QWORD PTR [rbp+296]
	pop	rdi
	pop	rbp
	ret	0
Java_com_LilG_Com_m68k_M68kSimImpl_adda ENDP
_TEXT	ENDS
; Function compile flags: /Odtp /RTCsu /ZI
;	COMDAT JNI_OnUnload
_TEXT	SEGMENT
$T1 = 200
$T2 = 232
$T3 = 264
tv68 = 280
vm$ = 320
reserved$ = 328
JNI_OnUnload PROC					; COMDAT
; File c:\users\fozrucix\workspace\fozrucix\jni\jnithing\jnithing\m68ksimulator.cpp
; Line 30
$LN9:
	mov	QWORD PTR [rsp+16], rdx
	mov	QWORD PTR [rsp+8], rcx
	push	rbp
	push	rdi
	sub	rsp, 328				; 00000148H
	lea	rbp, QWORD PTR [rsp+32]
	mov	rdi, rsp
	mov	ecx, 82					; 00000052H
	mov	eax, -858993460				; ccccccccH
	rep stosd
	mov	rcx, QWORD PTR [rsp+360]
; Line 31
	mov	rax, QWORD PTR ?instance@@3PEAVM68KSimulator@@EA ; instance
	mov	QWORD PTR $T2[rbp], rax
	mov	rax, QWORD PTR $T2[rbp]
	mov	QWORD PTR $T1[rbp], rax
	cmp	QWORD PTR $T1[rbp], 0
	je	SHORT $LN3@JNI_OnUnlo
	mov	rax, QWORD PTR $T3[rbp]
	mov	QWORD PTR tv68[rbp], rax
	mov	rcx, QWORD PTR $T1[rbp]
	call	??1M68KSimulator@@QEAA@XZ		; M68KSimulator::~M68KSimulator
	mov	eax, 1
	and	eax, 1
	test	eax, eax
	je	SHORT $LN6@JNI_OnUnlo
	mov	edx, 524368				; 00080050H
	mov	rcx, QWORD PTR $T1[rbp]
	call	??3@YAXPEAX_K@Z				; operator delete
$LN6@JNI_OnUnlo:
	mov	rax, QWORD PTR $T1[rbp]
	mov	QWORD PTR tv68[rbp], rax
	jmp	SHORT $LN4@JNI_OnUnlo
$LN3@JNI_OnUnlo:
	mov	QWORD PTR tv68[rbp], 0
$LN4@JNI_OnUnlo:
; Line 32
	lea	rcx, OFFSET FLAT:??_C@_0N@FLNILKML@JNI?5Unloaded?$AA@
	call	printf
; Line 33
	lea	rsp, QWORD PTR [rbp+296]
	pop	rdi
	pop	rbp
	ret	0
JNI_OnUnload ENDP
_TEXT	ENDS
; Function compile flags: /Odtp /RTCsu /ZI
;	COMDAT JNI_OnLoad
_TEXT	SEGMENT
vm$ = 224
reserved$ = 232
JNI_OnLoad PROC						; COMDAT
; File c:\users\fozrucix\workspace\fozrucix\jni\jnithing\jnithing\m68ksimulator.cpp
; Line 24
$LN3:
	mov	QWORD PTR [rsp+16], rdx
	mov	QWORD PTR [rsp+8], rcx
	push	rbp
	push	rdi
	sub	rsp, 232				; 000000e8H
	lea	rbp, QWORD PTR [rsp+32]
	mov	rdi, rsp
	mov	ecx, 58					; 0000003aH
	mov	eax, -858993460				; ccccccccH
	rep stosd
	mov	rcx, QWORD PTR [rsp+264]
; Line 25
	lea	rcx, OFFSET FLAT:??_C@_0L@IODJNECC@JNI?5Loaded?$AA@
	call	printf
; Line 26
	mov	eax, 65542				; 00010006H
; Line 27
	lea	rsp, QWORD PTR [rbp+200]
	pop	rdi
	pop	rbp
	ret	0
JNI_OnLoad ENDP
_TEXT	ENDS
; Function compile flags: /Odtp /RTCsu /ZI
;	COMDAT ??$__vcrt_va_start_verify_argument_type@PEAU_jmethodID@@@@YAXXZ
_TEXT	SEGMENT
??$__vcrt_va_start_verify_argument_type@PEAU_jmethodID@@@@YAXXZ PROC ; __vcrt_va_start_verify_argument_type<_jmethodID * __ptr64>, COMDAT
; File c:\program files (x86)\microsoft visual studio 14.0\vc\include\vadefs.h
; Line 144
$LN3:
	push	rbp
	push	rdi
	sub	rsp, 200				; 000000c8H
	mov	rbp, rsp
	mov	rdi, rsp
	mov	ecx, 50					; 00000032H
	mov	eax, -858993460				; ccccccccH
	rep stosd
; Line 146
	lea	rsp, QWORD PTR [rbp+200]
	pop	rdi
	pop	rbp
	ret	0
??$__vcrt_va_start_verify_argument_type@PEAU_jmethodID@@@@YAXXZ ENDP ; __vcrt_va_start_verify_argument_type<_jmethodID * __ptr64>
_TEXT	ENDS
; Function compile flags: /Odtp /RTCsu /ZI
;	COMDAT ?CallIntMethod@JNIEnv_@@QEAAJPEAV_jobject@@PEAU_jmethodID@@ZZ
_TEXT	SEGMENT
args$ = 8
result$ = 36
__$ArrayPad$ = 248
this$ = 288
obj$ = 296
methodID$ = 304
?CallIntMethod@JNIEnv_@@QEAAJPEAV_jobject@@PEAU_jmethodID@@ZZ PROC ; JNIEnv_::CallIntMethod, COMDAT
; File c:\program files\java\jdk1.8.0_51\include\jni.h
; Line 983
$LN3:
	mov	QWORD PTR [rsp+24], r8
	mov	QWORD PTR [rsp+16], rdx
	mov	QWORD PTR [rsp+8], rcx
	mov	QWORD PTR [rsp+32], r9
	push	rbp
	push	rdi
	sub	rsp, 296				; 00000128H
	lea	rbp, QWORD PTR [rsp+32]
	mov	rdi, rsp
	mov	ecx, 74					; 0000004aH
	mov	eax, -858993460				; ccccccccH
	rep stosd
	mov	rcx, QWORD PTR [rsp+328]
	mov	rax, QWORD PTR __security_cookie
	xor	rax, rbp
	mov	QWORD PTR __$ArrayPad$[rbp], rax
; Line 986
	call	??$__vcrt_va_start_verify_argument_type@PEAU_jmethodID@@@@YAXXZ ; __vcrt_va_start_verify_argument_type<_jmethodID * __ptr64>
	lea	rax, QWORD PTR methodID$[rbp+8]
	mov	QWORD PTR args$[rbp], rax
; Line 987
	mov	rax, QWORD PTR this$[rbp]
	mov	rax, QWORD PTR [rax]
	mov	r9, QWORD PTR args$[rbp]
	mov	r8, QWORD PTR methodID$[rbp]
	mov	rdx, QWORD PTR obj$[rbp]
	mov	rcx, QWORD PTR this$[rbp]
	call	QWORD PTR [rax+400]
	mov	DWORD PTR result$[rbp], eax
; Line 988
	mov	QWORD PTR args$[rbp], 0
; Line 989
	mov	eax, DWORD PTR result$[rbp]
; Line 990
	mov	edi, eax
	lea	rcx, QWORD PTR [rbp-32]
	lea	rdx, OFFSET FLAT:?CallIntMethod@JNIEnv_@@QEAAJPEAV_jobject@@PEAU_jmethodID@@ZZ$rtcFrameData
	call	_RTC_CheckStackVars
	mov	eax, edi
	mov	rcx, QWORD PTR __$ArrayPad$[rbp]
	xor	rcx, rbp
	call	__security_check_cookie
	lea	rsp, QWORD PTR [rbp+264]
	pop	rdi
	pop	rbp
	ret	0
?CallIntMethod@JNIEnv_@@QEAAJPEAV_jobject@@PEAU_jmethodID@@ZZ ENDP ; JNIEnv_::CallIntMethod
_TEXT	ENDS
; Function compile flags: /Odtp /RTCsu /ZI
;	COMDAT printf
_TEXT	SEGMENT
_Result$ = 4
_ArgList$ = 40
_Stream$ = 72
_Format$ = 104
_ArgList$ = 136
__$ArrayPad$ = 344
_Format$ = 384
printf	PROC						; COMDAT
; File c:\program files (x86)\windows kits\10\include\10.0.10240.0\ucrt\stdio.h
; Line 950
$LN5:
	mov	QWORD PTR [rsp+8], rcx
	mov	QWORD PTR [rsp+16], rdx
	mov	QWORD PTR [rsp+24], r8
	mov	QWORD PTR [rsp+32], r9
	push	rbp
	push	rdi
	sub	rsp, 408				; 00000198H
	lea	rbp, QWORD PTR [rsp+48]
	mov	rdi, rsp
	mov	ecx, 102				; 00000066H
	mov	eax, -858993460				; ccccccccH
	rep stosd
	mov	rcx, QWORD PTR [rsp+440]
	mov	rax, QWORD PTR __security_cookie
	xor	rax, rbp
	mov	QWORD PTR __$ArrayPad$[rbp], rax
; Line 953
	call	??$__vcrt_va_start_verify_argument_type@QEBD@@YAXXZ ; __vcrt_va_start_verify_argument_type<char const * __ptr64 const>
	lea	rax, QWORD PTR _Format$[rbp+8]
	mov	QWORD PTR _ArgList$[rbp], rax
; Line 954
	mov	rax, QWORD PTR _ArgList$[rbp]
	mov	QWORD PTR _ArgList$[rbp], rax
	mov	rax, QWORD PTR _Format$[rbp]
	mov	QWORD PTR _Format$[rbp], rax
	mov	ecx, 1
	call	QWORD PTR __imp___acrt_iob_func
	mov	QWORD PTR _Stream$[rbp], rax
; Line 639
	call	__local_stdio_printf_options
	mov	rcx, QWORD PTR _ArgList$[rbp]
	mov	QWORD PTR [rsp+32], rcx
	xor	r9d, r9d
	mov	r8, QWORD PTR _Format$[rbp]
	mov	rdx, QWORD PTR _Stream$[rbp]
	mov	rcx, QWORD PTR [rax]
	call	QWORD PTR __imp___stdio_common_vfprintf
; Line 954
	mov	DWORD PTR _Result$[rbp], eax
; Line 955
	mov	QWORD PTR _ArgList$[rbp], 0
; Line 956
	mov	eax, DWORD PTR _Result$[rbp]
; Line 957
	mov	edi, eax
	lea	rcx, QWORD PTR [rbp-48]
	lea	rdx, OFFSET FLAT:printf$rtcFrameData
	call	_RTC_CheckStackVars
	mov	eax, edi
	mov	rcx, QWORD PTR __$ArrayPad$[rbp]
	xor	rcx, rbp
	call	__security_check_cookie
	lea	rsp, QWORD PTR [rbp+360]
	pop	rdi
	pop	rbp
	ret	0
printf	ENDP
_TEXT	ENDS
; Function compile flags: /Odtp /RTCsu /ZI
;	COMDAT ??$__vcrt_va_start_verify_argument_type@QEBD@@YAXXZ
_TEXT	SEGMENT
??$__vcrt_va_start_verify_argument_type@QEBD@@YAXXZ PROC ; __vcrt_va_start_verify_argument_type<char const * __ptr64 const>, COMDAT
; File c:\program files (x86)\microsoft visual studio 14.0\vc\include\vadefs.h
; Line 144
$LN3:
	push	rbp
	push	rdi
	sub	rsp, 200				; 000000c8H
	mov	rbp, rsp
	mov	rdi, rsp
	mov	ecx, 50					; 00000032H
	mov	eax, -858993460				; ccccccccH
	rep stosd
; Line 146
	lea	rsp, QWORD PTR [rbp+200]
	pop	rdi
	pop	rbp
	ret	0
??$__vcrt_va_start_verify_argument_type@QEBD@@YAXXZ ENDP ; __vcrt_va_start_verify_argument_type<char const * __ptr64 const>
_TEXT	ENDS
; Function compile flags: /Odtp /RTCsu /ZI
;	COMDAT __local_stdio_printf_options
_TEXT	SEGMENT
__local_stdio_printf_options PROC			; COMDAT
; File c:\program files (x86)\windows kits\10\include\10.0.10240.0\ucrt\corecrt_stdio_config.h
; Line 73
$LN3:
	push	rbp
	push	rdi
	sub	rsp, 200				; 000000c8H
	mov	rbp, rsp
	mov	rdi, rsp
	mov	ecx, 50					; 00000032H
	mov	eax, -858993460				; ccccccccH
	rep stosd
; Line 75
	lea	rax, OFFSET FLAT:?_OptionsStorage@?1??__local_stdio_printf_options@@9@4_KA ; `__local_stdio_printf_options'::`2'::_OptionsStorage
; Line 76
	lea	rsp, QWORD PTR [rbp+200]
	pop	rdi
	pop	rbp
	ret	0
__local_stdio_printf_options ENDP
_TEXT	ENDS
; Function compile flags: /Odtp /RTCsu /ZI
;	COMDAT ??__Einstance@@YAXXZ
text$di	SEGMENT
$T1 = 200
$T2 = 232
$T3 = 264
tv77 = 280
??__Einstance@@YAXXZ PROC				; `dynamic initializer for 'instance'', COMDAT
; File c:\users\fozrucix\workspace\fozrucix\jni\jnithing\jnithing\m68ksimulator.h
; Line 43
	push	rbp
	push	rdi
	sub	rsp, 328				; 00000148H
	lea	rbp, QWORD PTR [rsp+32]
	mov	rdi, rsp
	mov	ecx, 82					; 00000052H
	mov	eax, -858993460				; ccccccccH
	rep stosd
	mov	QWORD PTR $T3[rbp], -2
	mov	ecx, 524368				; 00080050H
	call	??2@YAPEAX_K@Z				; operator new
	mov	QWORD PTR $T2[rbp], rax
	cmp	QWORD PTR $T2[rbp], 0
	je	SHORT $LN3@dynamic
	mov	rdi, QWORD PTR $T2[rbp]
	xor	eax, eax
	mov	ecx, 524368				; 00080050H
	rep stosb
	mov	rcx, QWORD PTR $T2[rbp]
	call	??0M68KSimulator@@QEAA@XZ		; M68KSimulator::M68KSimulator
	mov	QWORD PTR tv77[rbp], rax
	jmp	SHORT $LN4@dynamic
$LN3@dynamic:
	mov	QWORD PTR tv77[rbp], 0
$LN4@dynamic:
	mov	rax, QWORD PTR tv77[rbp]
	mov	QWORD PTR $T1[rbp], rax
	mov	rax, QWORD PTR $T1[rbp]
	mov	QWORD PTR ?instance@@3PEAVM68KSimulator@@EA, rax ; instance
	lea	rsp, QWORD PTR [rbp+296]
	pop	rdi
	pop	rbp
	ret	0
??__Einstance@@YAXXZ ENDP				; `dynamic initializer for 'instance''
text$di	ENDS
;	COMDAT text$x
text$x	SEGMENT
$T1 = 200
$T2 = 232
$T3 = 264
tv77 = 280
?dtor$0@?0???__Einstance@@YAXXZ@4HA PROC		; ``dynamic initializer for 'instance'''::`1'::dtor$0
	mov	QWORD PTR [rsp+8], rcx
	mov	QWORD PTR [rsp+16], rdx
	push	rbp
	push	rdi
	sub	rsp, 40					; 00000028H
	lea	rbp, QWORD PTR [rdx+32]
	mov	edx, 524368				; 00080050H
	mov	rcx, QWORD PTR $T2[rbp]
	call	??3@YAXPEAX_K@Z				; operator delete
	add	rsp, 40					; 00000028H
	pop	rdi
	pop	rbp
	ret	0
?dtor$0@?0???__Einstance@@YAXXZ@4HA ENDP		; ``dynamic initializer for 'instance'''::`1'::dtor$0
text$x	ENDS
; Function compile flags: /Odtp /RTCsu /ZI
;	COMDAT text$x
text$x	SEGMENT
$T1 = 200
$T2 = 232
$T3 = 264
tv77 = 280
?dtor$0@?0???__Einstance@@YAXXZ@4HA PROC		; ``dynamic initializer for 'instance'''::`1'::dtor$0
	mov	QWORD PTR [rsp+8], rcx
	mov	QWORD PTR [rsp+16], rdx
	push	rbp
	push	rdi
	sub	rsp, 40					; 00000028H
	lea	rbp, QWORD PTR [rdx+32]
	mov	edx, 524368				; 00080050H
	mov	rcx, QWORD PTR $T2[rbp]
	call	??3@YAXPEAX_K@Z				; operator delete
	add	rsp, 40					; 00000028H
	pop	rdi
	pop	rbp
	ret	0
?dtor$0@?0???__Einstance@@YAXXZ@4HA ENDP		; ``dynamic initializer for 'instance'''::`1'::dtor$0
text$x	ENDS
; Function compile flags: /Odtp /RTCsu /ZI
;	COMDAT ?addLongWord@M68KSimulator@@QEAAXGI@Z
_TEXT	SEGMENT
this$ = 224
address$ = 232
num$ = 240
?addLongWord@M68KSimulator@@QEAAXGI@Z PROC		; M68KSimulator::addLongWord, COMDAT
; File c:\users\fozrucix\workspace\fozrucix\jni\jnithing\jnithing\m68ksimulator.cpp
; Line 127
$LN3:
	mov	DWORD PTR [rsp+24], r8d
	mov	WORD PTR [rsp+16], dx
	mov	QWORD PTR [rsp+8], rcx
	push	rbp
	push	rdi
	sub	rsp, 200				; 000000c8H
	mov	rbp, rsp
	mov	rdi, rsp
	mov	ecx, 50					; 00000032H
	mov	eax, -858993460				; ccccccccH
	rep stosd
	mov	rcx, QWORD PTR [rsp+232]
; Line 128
	mov	rax, QWORD PTR this$[rbp]
	mov	rax, QWORD PTR [rax]
	movzx	ecx, WORD PTR address$[rbp]
	mov	edx, DWORD PTR num$[rbp]
	mov	DWORD PTR [rax+rcx*4], edx
; Line 129
	lea	rsp, QWORD PTR [rbp+200]
	pop	rdi
	pop	rbp
	ret	0
?addLongWord@M68KSimulator@@QEAAXGI@Z ENDP		; M68KSimulator::addLongWord
_TEXT	ENDS
; Function compile flags: /Odtp /RTCsu /ZI
;	COMDAT ?addWord@M68KSimulator@@QEAAXGG@Z
_TEXT	SEGMENT
this$ = 224
address$ = 232
num$ = 240
?addWord@M68KSimulator@@QEAAXGG@Z PROC			; M68KSimulator::addWord, COMDAT
; File c:\users\fozrucix\workspace\fozrucix\jni\jnithing\jnithing\m68ksimulator.cpp
; Line 123
$LN3:
	mov	WORD PTR [rsp+24], r8w
	mov	WORD PTR [rsp+16], dx
	mov	QWORD PTR [rsp+8], rcx
	push	rbp
	push	rdi
	sub	rsp, 200				; 000000c8H
	mov	rbp, rsp
	mov	rdi, rsp
	mov	ecx, 50					; 00000032H
	mov	eax, -858993460				; ccccccccH
	rep stosd
	mov	rcx, QWORD PTR [rsp+232]
; Line 124
	mov	rax, QWORD PTR this$[rbp]
	mov	rax, QWORD PTR [rax]
	movzx	ecx, WORD PTR address$[rbp]
	movzx	edx, WORD PTR num$[rbp]
	mov	WORD PTR [rax+rcx*2], dx
; Line 125
	lea	rsp, QWORD PTR [rbp+200]
	pop	rdi
	pop	rbp
	ret	0
?addWord@M68KSimulator@@QEAAXGG@Z ENDP			; M68KSimulator::addWord
_TEXT	ENDS
; Function compile flags: /Odtp /RTCsu /ZI
;	COMDAT ?addByte@M68KSimulator@@QEAAXGE@Z
_TEXT	SEGMENT
this$ = 224
address$ = 232
num$ = 240
?addByte@M68KSimulator@@QEAAXGE@Z PROC			; M68KSimulator::addByte, COMDAT
; File c:\users\fozrucix\workspace\fozrucix\jni\jnithing\jnithing\m68ksimulator.cpp
; Line 119
$LN3:
	mov	BYTE PTR [rsp+24], r8b
	mov	WORD PTR [rsp+16], dx
	mov	QWORD PTR [rsp+8], rcx
	push	rbp
	push	rdi
	sub	rsp, 200				; 000000c8H
	mov	rbp, rsp
	mov	rdi, rsp
	mov	ecx, 50					; 00000032H
	mov	eax, -858993460				; ccccccccH
	rep stosd
	mov	rcx, QWORD PTR [rsp+232]
; Line 120
	mov	rax, QWORD PTR this$[rbp]
	mov	rax, QWORD PTR [rax]
	movzx	ecx, WORD PTR address$[rbp]
	movzx	edx, BYTE PTR num$[rbp]
	mov	BYTE PTR [rax+rcx], dl
; Line 121
	lea	rsp, QWORD PTR [rbp+200]
	pop	rdi
	pop	rbp
	ret	0
?addByte@M68KSimulator@@QEAAXGE@Z ENDP			; M68KSimulator::addByte
_TEXT	ENDS
; Function compile flags: /Odtp /RTCsu /ZI
;	COMDAT ?setLongWord@M68KSimulator@@QEAAXGI@Z
_TEXT	SEGMENT
this$ = 224
address$ = 232
num$ = 240
?setLongWord@M68KSimulator@@QEAAXGI@Z PROC		; M68KSimulator::setLongWord, COMDAT
; File c:\users\fozrucix\workspace\fozrucix\jni\jnithing\jnithing\m68ksimulator.cpp
; Line 115
$LN3:
	mov	DWORD PTR [rsp+24], r8d
	mov	WORD PTR [rsp+16], dx
	mov	QWORD PTR [rsp+8], rcx
	push	rbp
	push	rdi
	sub	rsp, 200				; 000000c8H
	mov	rbp, rsp
	mov	rdi, rsp
	mov	ecx, 50					; 00000032H
	mov	eax, -858993460				; ccccccccH
	rep stosd
	mov	rcx, QWORD PTR [rsp+232]
; Line 116
	mov	rax, QWORD PTR this$[rbp]
	mov	rax, QWORD PTR [rax]
	movzx	ecx, WORD PTR address$[rbp]
	mov	edx, DWORD PTR num$[rbp]
	mov	DWORD PTR [rax+rcx*4], edx
; Line 117
	lea	rsp, QWORD PTR [rbp+200]
	pop	rdi
	pop	rbp
	ret	0
?setLongWord@M68KSimulator@@QEAAXGI@Z ENDP		; M68KSimulator::setLongWord
_TEXT	ENDS
; Function compile flags: /Odtp /RTCsu /ZI
;	COMDAT ?setWord@M68KSimulator@@QEAAXGG@Z
_TEXT	SEGMENT
this$ = 224
address$ = 232
num$ = 240
?setWord@M68KSimulator@@QEAAXGG@Z PROC			; M68KSimulator::setWord, COMDAT
; File c:\users\fozrucix\workspace\fozrucix\jni\jnithing\jnithing\m68ksimulator.cpp
; Line 111
$LN3:
	mov	WORD PTR [rsp+24], r8w
	mov	WORD PTR [rsp+16], dx
	mov	QWORD PTR [rsp+8], rcx
	push	rbp
	push	rdi
	sub	rsp, 200				; 000000c8H
	mov	rbp, rsp
	mov	rdi, rsp
	mov	ecx, 50					; 00000032H
	mov	eax, -858993460				; ccccccccH
	rep stosd
	mov	rcx, QWORD PTR [rsp+232]
; Line 112
	mov	rax, QWORD PTR this$[rbp]
	mov	rax, QWORD PTR [rax]
	movzx	ecx, WORD PTR address$[rbp]
	movzx	edx, WORD PTR num$[rbp]
	mov	WORD PTR [rax+rcx*2], dx
; Line 113
	lea	rsp, QWORD PTR [rbp+200]
	pop	rdi
	pop	rbp
	ret	0
?setWord@M68KSimulator@@QEAAXGG@Z ENDP			; M68KSimulator::setWord
_TEXT	ENDS
; Function compile flags: /Odtp /RTCsu /ZI
;	COMDAT ?setByte@M68KSimulator@@QEAAXGE@Z
_TEXT	SEGMENT
this$ = 224
address$ = 232
num$ = 240
?setByte@M68KSimulator@@QEAAXGE@Z PROC			; M68KSimulator::setByte, COMDAT
; File c:\users\fozrucix\workspace\fozrucix\jni\jnithing\jnithing\m68ksimulator.cpp
; Line 107
$LN3:
	mov	BYTE PTR [rsp+24], r8b
	mov	WORD PTR [rsp+16], dx
	mov	QWORD PTR [rsp+8], rcx
	push	rbp
	push	rdi
	sub	rsp, 200				; 000000c8H
	mov	rbp, rsp
	mov	rdi, rsp
	mov	ecx, 50					; 00000032H
	mov	eax, -858993460				; ccccccccH
	rep stosd
	mov	rcx, QWORD PTR [rsp+232]
; Line 108
	mov	rax, QWORD PTR this$[rbp]
	mov	rax, QWORD PTR [rax]
	movzx	ecx, WORD PTR address$[rbp]
	movzx	edx, BYTE PTR num$[rbp]
	mov	BYTE PTR [rax+rcx], dl
; Line 109
	lea	rsp, QWORD PTR [rbp+200]
	pop	rdi
	pop	rbp
	ret	0
?setByte@M68KSimulator@@QEAAXGE@Z ENDP			; M68KSimulator::setByte
_TEXT	ENDS
; Function compile flags: /Odtp /RTCsu /ZI
;	COMDAT ??1M68KSimulator@@QEAA@XZ
_TEXT	SEGMENT
this$ = 224
??1M68KSimulator@@QEAA@XZ PROC				; M68KSimulator::~M68KSimulator, COMDAT
; File c:\users\fozrucix\workspace\fozrucix\jni\jnithing\jnithing\m68ksimulator.cpp
; Line 19
$LN3:
	mov	QWORD PTR [rsp+8], rcx
	push	rbp
	push	rdi
	sub	rsp, 232				; 000000e8H
	lea	rbp, QWORD PTR [rsp+32]
	mov	rdi, rsp
	mov	ecx, 58					; 0000003aH
	mov	eax, -858993460				; ccccccccH
	rep stosd
	mov	rcx, QWORD PTR [rsp+264]
; Line 20
	mov	rax, QWORD PTR this$[rbp]
	mov	rcx, QWORD PTR [rax]
	call	QWORD PTR __imp_free
; Line 21
	lea	rsp, QWORD PTR [rbp+200]
	pop	rdi
	pop	rbp
	ret	0
??1M68KSimulator@@QEAA@XZ ENDP				; M68KSimulator::~M68KSimulator
_TEXT	ENDS
; Function compile flags: /Odtp /RTCsu /ZI
;	COMDAT ??0M68KSimulator@@QEAA@XZ
_TEXT	SEGMENT
this$ = 224
??0M68KSimulator@@QEAA@XZ PROC				; M68KSimulator::M68KSimulator, COMDAT
; File c:\users\fozrucix\workspace\fozrucix\jni\jnithing\jnithing\m68ksimulator.cpp
; Line 13
$LN3:
	mov	QWORD PTR [rsp+8], rcx
	push	rbp
	push	rdi
	sub	rsp, 232				; 000000e8H
	lea	rbp, QWORD PTR [rsp+32]
	mov	rdi, rsp
	mov	ecx, 58					; 0000003aH
	mov	eax, -858993460				; ccccccccH
	rep stosd
	mov	rcx, QWORD PTR [rsp+264]
; Line 14
	mov	ecx, 65536				; 00010000H
	call	QWORD PTR __imp_malloc
	mov	rcx, QWORD PTR this$[rbp]
	mov	QWORD PTR [rcx], rax
; Line 15
	mov	rax, QWORD PTR this$[rbp]
	mov	DWORD PTR [rax+524360], 0
; Line 16
	mov	rax, QWORD PTR this$[rbp]
	mov	rdx, rax
	lea	rcx, OFFSET FLAT:??_C@_0DD@HHCPJPAE@DEBUG?5?9?5M68KSimulator?5created?4?5S@
	call	printf
; Line 17
	mov	rax, QWORD PTR this$[rbp]
	lea	rsp, QWORD PTR [rbp+200]
	pop	rdi
	pop	rbp
	ret	0
??0M68KSimulator@@QEAA@XZ ENDP				; M68KSimulator::M68KSimulator
_TEXT	ENDS
END
